; Function Attrs: mustprogress uwtable
define noundef zeroext i1 @_ZN5Ipopt22BacktrackingLineSearch19CurrentIsAcceptableEv(ptr noundef nonnull readonly align 8 captures(none) dereferenceable(264) %0) local_unnamed_addr #6 align 2 {
  %2 = getelementptr inbounds nuw i8, ptr %0, i64 256
  %3 = load ptr, ptr %2, align 8, !tbaa !37
  %.not = icmp eq ptr %3, null
  br i1 %.not, label %9, label %4

4:                                                ; preds = %1
  %5 = load ptr, ptr %3, align 8, !tbaa !8
  %6 = getelementptr inbounds nuw i8, ptr %5, i64 32
  %7 = load ptr, ptr %6, align 8
  %8 = tail call noundef zeroext i1 %7(ptr noundef nonnull align 8 dereferenceable(49) %3)
  br label %9

9:                                                ; preds = %4, %1
  %10 = phi i1 [ false, %1 ], [ %8, %4 ]
  ret i1 %10
}